; Function Attrs: mustprogress nofree norecurse nosync nounwind willreturn memory(read, inaccessiblemem: none) uwtable
define hidden noundef i32 @_ZN4cvc58internal4prop16MinisatSatSolver5valueENS1_10SatLiteralE(ptr nocapture noundef nonnull readonly align 8 dereferenceable(168) %this, i64 %l.coerce) unnamed_addr #14 align 2 {
entry:
  %d_minisat = getelementptr inbounds i8, ptr %this, i64 24
  %0 = load ptr, ptr %d_minisat, align 8
  %.b = load i1, ptr @_ZN4cvc58internal4propL15undefSatLiteralE.0, align 8
  %1 = select i1 %.b, i64 -2, i64 0
  %cmp.i.i = icmp eq i64 %1, %l.coerce
  %tr.sh.diff.i = trunc i64 %l.coerce to i32
  %retval.sroa.0.0.i = select i1 %cmp.i.i, i32 -2, i32 %tr.sh.diff.i
  %assigns.i = getelementptr inbounds i8, ptr %0, i64 472
  %shr.i.i = ashr i32 %retval.sroa.0.0.i, 1
  %2 = load ptr, ptr %assigns.i, align 8
  %idxprom.i.i = sext i32 %shr.i.i to i64
  %arrayidx.i.i = getelementptr inbounds %"class.cvc5::internal::Minisat::lbool", ptr %2, i64 %idxprom.i.i
  %3 = load i8, ptr %arrayidx.i.i, align 1
  %4 = trunc i32 %retval.sroa.0.0.i to i8
  %5 = and i8 %4, 1
  %cmp.i.i1 = icmp eq i8 %3, %5
  %and53.i1.i = and i8 %3, 2
  %6 = xor i8 %and53.i1.i, 2
  %narrow.i = select i1 %cmp.i.i1, i8 1, i8 %6
  %retval.0.i = zext nneg i8 %narrow.i to i32
  ret i32 %retval.0.i
}